target datalayout = "e-m:e-p270:32:32-p271:32:32-p272:64:64-i64:64-i128:128-f80:128-n8:16:32:64-S128"
target triple = "x86_64-pc-linux-gnu"

%struct._spdu_lin_mapping = type { i32, i32, i32 }

@.str.299 = private unnamed_addr constant [49 x i8] c"LIN Frame IDs are only uint with 6 bits (ID: %i)\00", align 1
@.str.300 = private unnamed_addr constant [64 x i8] c"LIN Bus IDs are only uint with 16 bits (ID: 0x%x, Bus ID: 0x%x)\00", align 1

; Function Attrs: null_pointer_is_valid sspstrong uwtable
define internal zeroext i1 @update_spdu_lin_mapping(ptr noundef %0, ptr noundef %1) #0 {
  %3 = alloca i1, align 1
  %4 = alloca ptr, align 8
  %5 = alloca ptr, align 8
  %6 = alloca ptr, align 8
  %7 = alloca i32, align 4
  store ptr %0, ptr %4, align 8
  store ptr %1, ptr %5, align 8
  call void @llvm.lifetime.start.p0(i64 8, ptr %6) #14
  %8 = load ptr, ptr %4, align 8
  store ptr %8, ptr %6, align 8
  %9 = load ptr, ptr %6, align 8
  %10 = getelementptr inbounds nuw %struct._spdu_lin_mapping, ptr %9, i32 0, i32 0
  %11 = load i32, ptr %10, align 4
  %12 = icmp ugt i32 %11, 63
  br i1 %12, label %13, label %19

13:                                               ; preds = %2
  %14 = load ptr, ptr %6, align 8
  %15 = getelementptr inbounds nuw %struct._spdu_lin_mapping, ptr %14, i32 0, i32 0
  %16 = load i32, ptr %15, align 4
  %17 = call noalias ptr (ptr, ptr, ...) @wmem_strdup_printf(ptr noundef null, ptr noundef @.str.299, i32 noundef %16)
  %18 = load ptr, ptr %5, align 8
  store ptr %17, ptr %18, align 8
  store i1 false, ptr %3, align 1
  store i32 1, ptr %7, align 4
  br label %34

19:                                               ; preds = %2
  %20 = load ptr, ptr %6, align 8
  %21 = getelementptr inbounds nuw %struct._spdu_lin_mapping, ptr %20, i32 0, i32 1
  %22 = load i32, ptr %21, align 4
  %23 = icmp ugt i32 %22, 65535
  br i1 %23, label %24, label %33

24:                                               ; preds = %19
  %25 = load ptr, ptr %6, align 8
  %26 = getelementptr inbounds nuw %struct._spdu_lin_mapping, ptr %25, i32 0, i32 0
  %27 = load i32, ptr %26, align 4
  %28 = load ptr, ptr %6, align 8
  %29 = getelementptr inbounds nuw %struct._spdu_lin_mapping, ptr %28, i32 0, i32 1
  %30 = load i32, ptr %29, align 4
  %31 = call noalias ptr (ptr, ptr, ...) @wmem_strdup_printf(ptr noundef null, ptr noundef @.str.300, i32 noundef %27, i32 noundef %30)
  %32 = load ptr, ptr %5, align 8
  store ptr %31, ptr %32, align 8
  store i1 false, ptr %3, align 1
  store i32 1, ptr %7, align 4
  br label %34

33:                                               ; preds = %19
  store i1 true, ptr %3, align 1
  store i32 1, ptr %7, align 4
  br label %34

34:                                               ; preds = %33, %24, %13
  call void @llvm.lifetime.end.p0(i64 8, ptr %6) #14
  %35 = load i1, ptr %3, align 1
  ret i1 %35
}