; Function Attrs: null_pointer_is_valid sspstrong uwtable
define internal noundef zeroext i1 @update_spdu_lin_mapping(ptr noundef readonly captures(none) %0, ptr noundef writeonly captures(none) %1) #0 {
  %3 = load i32, ptr %0, align 4
  %4 = icmp ugt i32 %3, 63
  br i1 %4, label %5, label %7

5:                                                ; preds = %2
  %6 = tail call noalias ptr (ptr, ptr, ...) @wmem_strdup_printf(ptr noundef null, ptr noundef nonnull @.str.299, i32 noundef %3)
  br label %.sink.split

7:                                                ; preds = %2
  %8 = getelementptr inbounds nuw i8, ptr %0, i64 4
  %9 = load i32, ptr %8, align 4
  %10 = icmp ugt i32 %9, 65535
  br i1 %10, label %11, label %13

11:                                               ; preds = %7
  %12 = tail call noalias ptr (ptr, ptr, ...) @wmem_strdup_printf(ptr noundef null, ptr noundef nonnull @.str.300, i32 noundef %3, i32 noundef %9)
  br label %.sink.split

.sink.split:                                      ; preds = %5, %11
  %.sink = phi ptr [ %12, %11 ], [ %6, %5 ]
  store ptr %.sink, ptr %1, align 8
  br label %13

13:                                               ; preds = %.sink.split, %7
  %.0 = phi i1 [ true, %7 ], [ false, %.sink.split ]
  ret i1 %.0
}